; Function Attrs: mustprogress uwtable
define void @_ZN2cv7quality11QualitySSIM6createERKNS_11_InputArrayE(ptr dead_on_unwind noalias writable writeonly sret(%"struct.cv::Ptr") align 8 captures(none) %0, ptr noundef nonnull align 8 dereferenceable(24) %1) local_unnamed_addr #0 align 2 personality ptr @__gxx_personality_v0 {
  %3 = alloca %"struct.cv::quality::QualitySSIM::_mat_data", align 8
  %4 = tail call noalias noundef nonnull dereferenceable(488) ptr @_Znwm(i64 noundef 488) #18
  invoke void @_ZN2cv7quality11QualitySSIM9_mat_dataC1ERKNS_11_InputArrayE(ptr noundef nonnull align 8 dereferenceable(400) %3, ptr noundef nonnull align 8 dereferenceable(24) %1)
          to label %5 unwind label %.thread

5:                                                ; preds = %2
  invoke void @_ZN2cv9AlgorithmC2Ev(ptr noundef nonnull align 8 dereferenceable(488) %4)
          to label %.noexc unwind label %34

.noexc:                                           ; preds = %5
  store ptr getelementptr inbounds nuw inrange(-80, 80) (i8, ptr @_ZTCN2cv7quality11QualitySSIME0_NS0_11QualityBaseE, i64 80), ptr %4, align 8, !tbaa !32
  %6 = getelementptr inbounds nuw i8, ptr %4, i64 8
  call void @_ZN2cv4UMatC1ENS_14UMatUsageFlagsE(ptr noundef nonnull align 8 dereferenceable(80) %6, i32 noundef 0) #17
  store ptr getelementptr inbounds nuw inrange(-80, 80) (i8, ptr @_ZTVN2cv7quality11QualitySSIME, i64 80), ptr %4, align 8, !tbaa !32
  %7 = getelementptr inbounds nuw i8, ptr %4, i64 88
  invoke void @_ZN2cv7quality11QualitySSIM9_mat_dataC2EOS2_(ptr noundef nonnull align 8 dereferenceable(400) %7, ptr noundef nonnull align 8 dereferenceable(400) %3)
          to label %_ZN2cv7quality11QualitySSIMC1ENS1_9_mat_dataE.exit unwind label %8

8:                                                ; preds = %.noexc
  %9 = landingpad { ptr, i32 }
          cleanup
  store ptr getelementptr inbounds nuw inrange(-80, 80) (i8, ptr @_ZTCN2cv7quality11QualitySSIME0_NS0_11QualityBaseE, i64 80), ptr %4, align 8, !tbaa !32
  call void @_ZN2cv4UMatD1Ev(ptr noundef nonnull align 8 dereferenceable(80) %6) #17
  call void @_ZN2cv9AlgorithmD2Ev(ptr noundef nonnull align 8 dereferenceable(488) %4) #17
  br label %.thread13

_ZN2cv7quality11QualitySSIMC1ENS1_9_mat_dataE.exit: ; preds = %.noexc
  store ptr %4, ptr %0, align 8, !tbaa !34
  %10 = getelementptr inbounds nuw i8, ptr %0, i64 8
  store ptr null, ptr %10, align 8, !tbaa !39
  %11 = invoke noalias noundef nonnull dereferenceable(24) ptr @_Znwm(i64 noundef 24) #18
          to label %25 unwind label %12

12:                                               ; preds = %_ZN2cv7quality11QualitySSIMC1ENS1_9_mat_dataE.exit
  %13 = landingpad { ptr, i32 }
          catch ptr null
  %14 = extractvalue { ptr, i32 } %13, 0
  %15 = call ptr @__cxa_begin_catch(ptr %14) #17
  %16 = load ptr, ptr %4, align 8, !tbaa !32
  %17 = getelementptr inbounds nuw i8, ptr %16, i64 8
  %18 = load ptr, ptr %17, align 8
  call void %18(ptr noundef nonnull align 8 dereferenceable(488) %4) #17
  invoke void @__cxa_rethrow() #19
          to label %24 unwind label %19

19:                                               ; preds = %12
  %20 = landingpad { ptr, i32 }
          cleanup
  invoke void @__cxa_end_catch()
          to label %36 unwind label %21

21:                                               ; preds = %19
  %22 = landingpad { ptr, i32 }
          catch ptr null
  %23 = extractvalue { ptr, i32 } %22, 0
  call void @__clang_call_terminate(ptr %23) #20
  unreachable

24:                                               ; preds = %12
  unreachable

25:                                               ; preds = %_ZN2cv7quality11QualitySSIMC1ENS1_9_mat_dataE.exit
  %26 = getelementptr inbounds nuw i8, ptr %11, i64 8
  store i32 1, ptr %26, align 8, !tbaa !40
  %27 = getelementptr inbounds nuw i8, ptr %11, i64 12
  store i32 1, ptr %27, align 4, !tbaa !42
  store ptr getelementptr inbounds nuw inrange(-16, 40) (i8, ptr @_ZTVSt15_Sp_counted_ptrIPN2cv7quality11QualitySSIMELN9__gnu_cxx12_Lock_policyE2EE, i64 16), ptr %11, align 8, !tbaa !32
  %28 = getelementptr inbounds nuw i8, ptr %11, i64 16
  store ptr %4, ptr %28, align 8, !tbaa !43
  store ptr %11, ptr %10, align 8, !tbaa !39
  %29 = getelementptr inbounds nuw i8, ptr %3, i64 320
  call void @_ZN2cv4UMatD1Ev(ptr noundef nonnull align 8 dereferenceable(80) %29) #17
  %30 = getelementptr inbounds nuw i8, ptr %3, i64 240
  call void @_ZN2cv4UMatD1Ev(ptr noundef nonnull align 8 dereferenceable(80) %30) #17
  %31 = getelementptr inbounds nuw i8, ptr %3, i64 160
  call void @_ZN2cv4UMatD1Ev(ptr noundef nonnull align 8 dereferenceable(80) %31) #17
  %32 = getelementptr inbounds nuw i8, ptr %3, i64 80
  call void @_ZN2cv4UMatD1Ev(ptr noundef nonnull align 8 dereferenceable(80) %32) #17
  call void @_ZN2cv4UMatD1Ev(ptr noundef nonnull align 8 dereferenceable(400) %3) #17
  ret void

.thread:                                          ; preds = %2
  %33 = landingpad { ptr, i32 }
          cleanup
  br label %37

34:                                               ; preds = %5
  %35 = landingpad { ptr, i32 }
          cleanup
  br label %.thread13

.thread13:                                        ; preds = %8, %34
  %eh.lpad-body.ph = phi { ptr, i32 } [ %35, %34 ], [ %9, %8 ]
  call void @_ZN2cv7quality11QualitySSIM9_mat_dataD2Ev(ptr noundef nonnull align 8 dereferenceable(400) %3) #17
  br label %37

36:                                               ; preds = %19
  call void @_ZN2cv7quality11QualitySSIM9_mat_dataD2Ev(ptr noundef nonnull align 8 dereferenceable(400) %3) #17
  br label %38

37:                                               ; preds = %.thread13, %.thread
  %.pn12 = phi { ptr, i32 } [ %33, %.thread ], [ %eh.lpad-body.ph, %.thread13 ]
  call void @_ZdlPv(ptr noundef nonnull %4) #21
  br label %38

38:                                               ; preds = %36, %37
  %.pn11 = phi { ptr, i32 } [ %20, %36 ], [ %.pn12, %37 ]
  resume { ptr, i32 } %.pn11
}